target datalayout = "e-m:e-p270:32:32-p271:32:32-p272:64:64-i64:64-i128:128-f80:128-n8:16:32:64-S128"
target triple = "x86_64-pc-linux-gnu"

%struct.UDataMemory = type { ptr, ptr, ptr, i8, ptr, ptr, i32 }

; Function Attrs: inlinehint mustprogress nounwind uwtable
define internal noundef signext i8 @_ZL9U_FAILURE10UErrorCode(i32 noundef %0) #2 {
  %2 = alloca i32, align 4
  store i32 %0, ptr %2, align 4, !tbaa !15
  %3 = load i32, ptr %2, align 4, !tbaa !15
  %4 = icmp sgt i32 %3, 0
  %5 = zext i1 %4 to i8
  ret i8 %5
}

; Function Attrs: mustprogress uwtable
define void @udata_setCommonData_77(ptr noundef %0, ptr noundef %1) #1 {
  %3 = alloca ptr, align 8
  %4 = alloca ptr, align 8
  %5 = alloca %struct.UDataMemory, align 8
  %6 = alloca i32, align 4
  store ptr %0, ptr %3, align 8, !tbaa !22
  store ptr %1, ptr %4, align 8, !tbaa !22
  call void @llvm.lifetime.start.p0(i64 56, ptr %5) #12
  %7 = load ptr, ptr %4, align 8, !tbaa !22
  %8 = icmp eq ptr %7, null
  br i1 %8, label %14, label %9

9:                                                ; preds = %2
  %10 = load ptr, ptr %4, align 8, !tbaa !22
  %11 = load i32, ptr %10, align 4, !tbaa !15
  %12 = call noundef signext i8 @_ZL9U_FAILURE10UErrorCode(i32 noundef %11)
  %13 = icmp ne i8 %12, 0
  br i1 %13, label %14, label %15

14:                                               ; preds = %9, %2
  store i32 1, ptr %6, align 4
  br label %31

15:                                               ; preds = %9
  %16 = load ptr, ptr %3, align 8, !tbaa !22
  %17 = icmp eq ptr %16, null
  br i1 %17, label %18, label %20

18:                                               ; preds = %15
  %19 = load ptr, ptr %4, align 8, !tbaa !22
  store i32 1, ptr %19, align 4, !tbaa !15
  store i32 1, ptr %6, align 4
  br label %31

20:                                               ; preds = %15
  call void @UDataMemory_init_77(ptr noundef %5)
  %21 = load ptr, ptr %3, align 8, !tbaa !22
  call void @UDataMemory_setData_77(ptr noundef %5, ptr noundef %21)
  %22 = load ptr, ptr %4, align 8, !tbaa !22
  call void @udata_checkCommonData_77(ptr noundef %5, ptr noundef %22)
  %23 = load ptr, ptr %4, align 8, !tbaa !22
  %24 = load i32, ptr %23, align 4, !tbaa !15
  %25 = call noundef signext i8 @_ZL9U_FAILURE10UErrorCode(i32 noundef %24)
  %26 = icmp ne i8 %25, 0
  br i1 %26, label %27, label %28

27:                                               ; preds = %20
  store i32 1, ptr %6, align 4
  br label %31

28:                                               ; preds = %20
  %29 = load ptr, ptr %4, align 8, !tbaa !22
  %30 = call noundef signext i8 @_ZL16setCommonICUDataP11UDataMemoryaP10UErrorCode(ptr noundef %5, i8 noundef signext 1, ptr noundef %29)
  store i32 0, ptr %6, align 4
  br label %31

31:                                               ; preds = %28, %27, %18, %14
  call void @llvm.lifetime.end.p0(i64 56, ptr %5) #12
  %32 = load i32, ptr %6, align 4
  switch i32 %32, label %34 [
    i32 0, label %33
    i32 1, label %33
  ]

33:                                               ; preds = %31, %31
  ret void

34:                                               ; preds = %31
  unreachable
}