; Function Attrs: mustprogress uwtable
define void @udata_setCommonData_77(ptr noundef %0, ptr noundef %1) local_unnamed_addr #1 {
  %3 = alloca %struct.UDataMemory, align 8
  call void @llvm.lifetime.start.p0(i64 56, ptr nonnull %3) #15
  %4 = icmp eq ptr %1, null
  br i1 %4, label %15, label %5

5:                                                ; preds = %2
  %6 = load i32, ptr %1, align 4, !tbaa !13
  %7 = icmp slt i32 %6, 1
  br i1 %7, label %8, label %15

8:                                                ; preds = %5
  %9 = icmp eq ptr %0, null
  br i1 %9, label %10, label %11

10:                                               ; preds = %8
  store i32 1, ptr %1, align 4, !tbaa !13
  br label %15

11:                                               ; preds = %8
  call void @UDataMemory_init_77(ptr noundef nonnull %3)
  call void @UDataMemory_setData_77(ptr noundef nonnull %3, ptr noundef nonnull %0)
  call void @udata_checkCommonData_77(ptr noundef nonnull %3, ptr noundef nonnull %1)
  %12 = load i32, ptr %1, align 4, !tbaa !13
  %13 = icmp slt i32 %12, 1
  br i1 %13, label %14, label %15

14:                                               ; preds = %11
  call fastcc void @_ZL16setCommonICUDataP11UDataMemoryaP10UErrorCode(ptr noundef %3, i8 noundef signext 1, ptr noundef %1)
  br label %15

15:                                               ; preds = %11, %2, %5, %14, %10
  call void @llvm.lifetime.end.p0(i64 56, ptr nonnull %3) #15
  ret void
}